#include <math.h>
#include <stdio.h>
#include <stdlib.h>
#include <string.h>

int main()
{
	int n;
	scanf("%d",&n);
	int x=0;
	double sum=0,s=0;
	double z[100];
	for(int i=0;i<n;i++)
	{
		scanf("%d",&x);
		for(int j=0;j<x;j++)
		{
			scanf("%lf",&(z[j]));
			sum=sum+z[j];
		}
		for(int f=0;f<x;f++)
		{
			s=s+(z[f]-sum/x)*(z[f]-sum/x);
		}
		s=s/x;
		s=pow(s,0.5);
		printf("%0.5lf\n",s);
		sum=0;
		s=0;
	}
	return 0;
}
